#include <math.h>
#include <stdio.h>
#include <stdlib.h>
#include <string.h>

int main()
{
	int a[101];
	int n,m,i;
	scanf("%d %d",&n,&m);
	for(i=0;i<n;i++)
		scanf("%d",&a[i]);
	int j,k,t;
	for(j=1;j<=m;j++)
	for(k=n-1;k>=0;k--)
	{
		if(k==n-1)
		{
			t=a[k];
			a[k]=a[k-1];
		}
		else if(k==0)
			a[k]=t;
		else
			a[k]=a[k-1];
	}
	int l;
	for(l=0;l<n-1;l++)
		printf("%d ",a[l]);
	printf("%d",a[n-1]);
	return 0;
}